target datalayout = "e-m:e-p270:32:32-p271:32:32-p272:64:64-i64:64-i128:128-f80:128-n8:16:32:64-S128"
target triple = "x86_64-pc-linux-gnu"

%struct.ossl_param_st = type { ptr, i32, ptr, i64, i64 }
%struct.TEST_ENCAPDATA = type { ptr, ptr, i64, ptr, i64, ptr, i64, ptr, i64, ptr, i64, ptr, i64, ptr, i64 }

@libctx = internal global ptr null, align 8
@opparam = internal global [2 x %struct.ossl_param_st] zeroinitializer, align 16
@.str.3 = private unnamed_addr constant [38 x i8] c"../openssl/test/evp_pkey_dhkem_test.c\00", align 1
@rctx = internal global [2 x ptr] zeroinitializer, align 16
@.str.50 = private unnamed_addr constant [2 x i8] c"1\00", align 1
@.str.74 = private unnamed_addr constant [2 x i8] c"0\00", align 1
@.str.142 = private unnamed_addr constant [77 x i8] c"key = new_raw_private_key(t->curve, t->rpriv, t->rprivlen, tmp, sizeof(tmp))\00", align 1
@.str.143 = private unnamed_addr constant [55 x i8] c"keyctx = EVP_PKEY_CTX_new_from_pkey(libctx, key, NULL)\00", align 1
@.str.144 = private unnamed_addr constant [43 x i8] c"EVP_PKEY_encapsulate_init(keyctx, opparam)\00", align 1
@.str.145 = private unnamed_addr constant [49 x i8] c"EVP_PKEY_encapsulate(keyctx, e, &elen, s, &slen)\00", align 1
@.str.146 = private unnamed_addr constant [43 x i8] c"EVP_PKEY_decapsulate_init(keyctx, opparam)\00", align 1
@.str.147 = private unnamed_addr constant [76 x i8] c"EVP_PKEY_decapsulate(keyctx, s, &slen, t->expected_enc, t->expected_enclen)\00", align 1
@.str.148 = private unnamed_addr constant [50 x i8] c"EVP_PKEY_auth_encapsulate_init(ctx, key, opparam)\00", align 1
@.str.149 = private unnamed_addr constant [46 x i8] c"EVP_PKEY_encapsulate(ctx, e, &elen, s, &slen)\00", align 1

; Function Attrs: nounwind uwtable
define internal i32 @test_ec_public_key_infinity() #0 {
  %1 = alloca i32, align 4
  %2 = alloca ptr, align 8
  %3 = alloca ptr, align 8
  %4 = alloca [256 x i8], align 16
  %5 = alloca [256 x i8], align 16
  %6 = alloca i64, align 8
  %7 = alloca i64, align 8
  %8 = alloca [1 x i8], align 1
  %9 = alloca ptr, align 8
  %10 = alloca ptr, align 8
  call void @llvm.lifetime.start.p0(i64 4, ptr %1) #6
  store i32 0, ptr %1, align 4, !tbaa !10
  call void @llvm.lifetime.start.p0(i64 8, ptr %2) #6
  store ptr null, ptr %2, align 8, !tbaa !17
  call void @llvm.lifetime.start.p0(i64 8, ptr %3) #6
  store ptr null, ptr %3, align 8, !tbaa !19
  call void @llvm.lifetime.start.p0(i64 256, ptr %4) #6
  call void @llvm.lifetime.start.p0(i64 256, ptr %5) #6
  call void @llvm.lifetime.start.p0(i64 8, ptr %6) #6
  store i64 256, ptr %6, align 8, !tbaa !13
  call void @llvm.lifetime.start.p0(i64 8, ptr %7) #6
  store i64 256, ptr %7, align 8, !tbaa !13
  call void @llvm.lifetime.start.p0(i64 1, ptr %8) #6
  call void @llvm.memset.p0.i64(ptr align 1 %8, i8 0, i64 1, i1 false)
  call void @llvm.lifetime.start.p0(i64 8, ptr %9) #6
  %11 = load ptr, ptr @rctx, align 16, !tbaa !19
  store ptr %11, ptr %9, align 8, !tbaa !19
  call void @llvm.lifetime.start.p0(i64 8, ptr %10) #6
  store ptr @ec_encapdata, ptr %10, align 8, !tbaa !12
  %12 = load ptr, ptr %10, align 8, !tbaa !12
  %13 = getelementptr inbounds nuw %struct.TEST_ENCAPDATA, ptr %12, i32 0, i32 0
  %14 = load ptr, ptr %13, align 8, !tbaa !21
  %15 = load ptr, ptr %10, align 8, !tbaa !12
  %16 = getelementptr inbounds nuw %struct.TEST_ENCAPDATA, ptr %15, i32 0, i32 5
  %17 = load ptr, ptr %16, align 8, !tbaa !29
  %18 = load ptr, ptr %10, align 8, !tbaa !12
  %19 = getelementptr inbounds nuw %struct.TEST_ENCAPDATA, ptr %18, i32 0, i32 6
  %20 = load i64, ptr %19, align 8, !tbaa !30
  %21 = getelementptr inbounds [1 x i8], ptr %8, i64 0, i64 0
  %22 = call ptr @new_raw_private_key(ptr noundef %14, ptr noundef %17, i64 noundef %20, ptr noundef %21, i64 noundef 1)
  store ptr %22, ptr %2, align 8, !tbaa !17
  %23 = call i32 @test_ptr(ptr noundef @.str.3, i32 noundef 304, ptr noundef @.str.142, ptr noundef %22)
  %24 = icmp ne i32 %23, 0
  br i1 %24, label %25, label %73

25:                                               ; preds = %0
  %26 = load ptr, ptr @libctx, align 8, !tbaa !15
  %27 = load ptr, ptr %2, align 8, !tbaa !17
  %28 = call ptr @EVP_PKEY_CTX_new_from_pkey(ptr noundef %26, ptr noundef %27, ptr noundef null)
  store ptr %28, ptr %3, align 8, !tbaa !19
  %29 = call i32 @test_ptr(ptr noundef @.str.3, i32 noundef 305, ptr noundef @.str.143, ptr noundef %28)
  %30 = icmp ne i32 %29, 0
  br i1 %30, label %31, label %73

31:                                               ; preds = %25
  %32 = load ptr, ptr %3, align 8, !tbaa !19
  %33 = call i32 @EVP_PKEY_encapsulate_init(ptr noundef %32, ptr noundef @opparam)
  %34 = call i32 @test_int_eq(ptr noundef @.str.3, i32 noundef 307, ptr noundef @.str.144, ptr noundef @.str.50, i32 noundef %33, i32 noundef 1)
  %35 = icmp ne i32 %34, 0
  br i1 %35, label %36, label %73

36:                                               ; preds = %31
  %37 = load ptr, ptr %3, align 8, !tbaa !19
  %38 = getelementptr inbounds [256 x i8], ptr %5, i64 0, i64 0
  %39 = getelementptr inbounds [256 x i8], ptr %4, i64 0, i64 0
  %40 = call i32 @EVP_PKEY_encapsulate(ptr noundef %37, ptr noundef %38, ptr noundef %7, ptr noundef %39, ptr noundef %6)
  %41 = call i32 @test_int_eq(ptr noundef @.str.3, i32 noundef 308, ptr noundef @.str.145, ptr noundef @.str.74, i32 noundef %40, i32 noundef 0)
  %42 = icmp ne i32 %41, 0
  br i1 %42, label %43, label %73

43:                                               ; preds = %36
  %44 = load ptr, ptr %3, align 8, !tbaa !19
  %45 = call i32 @EVP_PKEY_decapsulate_init(ptr noundef %44, ptr noundef @opparam)
  %46 = call i32 @test_int_eq(ptr noundef @.str.3, i32 noundef 310, ptr noundef @.str.146, ptr noundef @.str.50, i32 noundef %45, i32 noundef 1)
  %47 = icmp ne i32 %46, 0
  br i1 %47, label %48, label %73

48:                                               ; preds = %43
  %49 = load ptr, ptr %3, align 8, !tbaa !19
  %50 = getelementptr inbounds [256 x i8], ptr %4, i64 0, i64 0
  %51 = load ptr, ptr %10, align 8, !tbaa !12
  %52 = getelementptr inbounds nuw %struct.TEST_ENCAPDATA, ptr %51, i32 0, i32 7
  %53 = load ptr, ptr %52, align 8, !tbaa !35
  %54 = load ptr, ptr %10, align 8, !tbaa !12
  %55 = getelementptr inbounds nuw %struct.TEST_ENCAPDATA, ptr %54, i32 0, i32 8
  %56 = load i64, ptr %55, align 8, !tbaa !36
  %57 = call i32 @EVP_PKEY_decapsulate(ptr noundef %49, ptr noundef %50, ptr noundef %6, ptr noundef %53, i64 noundef %56)
  %58 = call i32 @test_int_eq(ptr noundef @.str.3, i32 noundef 313, ptr noundef @.str.147, ptr noundef @.str.74, i32 noundef %57, i32 noundef 0)
  %59 = icmp ne i32 %58, 0
  br i1 %59, label %60, label %73

60:                                               ; preds = %48
  %61 = load ptr, ptr %9, align 8, !tbaa !19
  %62 = load ptr, ptr %2, align 8, !tbaa !17
  %63 = call i32 @EVP_PKEY_auth_encapsulate_init(ptr noundef %61, ptr noundef %62, ptr noundef @opparam)
  %64 = call i32 @test_int_eq(ptr noundef @.str.3, i32 noundef 315, ptr noundef @.str.148, ptr noundef @.str.50, i32 noundef %63, i32 noundef 1)
  %65 = icmp ne i32 %64, 0
  br i1 %65, label %66, label %73

66:                                               ; preds = %60
  %67 = load ptr, ptr %9, align 8, !tbaa !19
  %68 = getelementptr inbounds [256 x i8], ptr %5, i64 0, i64 0
  %69 = getelementptr inbounds [256 x i8], ptr %4, i64 0, i64 0
  %70 = call i32 @EVP_PKEY_encapsulate(ptr noundef %67, ptr noundef %68, ptr noundef %7, ptr noundef %69, ptr noundef %6)
  %71 = call i32 @test_int_eq(ptr noundef @.str.3, i32 noundef 316, ptr noundef @.str.149, ptr noundef @.str.74, i32 noundef %70, i32 noundef 0)
  %72 = icmp ne i32 %71, 0
  br label %73

73:                                               ; preds = %66, %60, %48, %43, %36, %31, %25, %0
  %74 = phi i1 [ false, %60 ], [ false, %48 ], [ false, %43 ], [ false, %36 ], [ false, %31 ], [ false, %25 ], [ false, %0 ], [ %72, %66 ]
  %75 = zext i1 %74 to i32
  store i32 %75, ptr %1, align 4, !tbaa !10
  %76 = load ptr, ptr %2, align 8, !tbaa !17
  call void @EVP_PKEY_free(ptr noundef %76)
  %77 = load ptr, ptr %3, align 8, !tbaa !19
  call void @EVP_PKEY_CTX_free(ptr noundef %77)
  %78 = load i32, ptr %1, align 4, !tbaa !10
  call void @llvm.lifetime.end.p0(i64 8, ptr %10) #6
  call void @llvm.lifetime.end.p0(i64 8, ptr %9) #6
  call void @llvm.lifetime.end.p0(i64 1, ptr %8) #6
  call void @llvm.lifetime.end.p0(i64 8, ptr %7) #6
  call void @llvm.lifetime.end.p0(i64 8, ptr %6) #6
  call void @llvm.lifetime.end.p0(i64 256, ptr %5) #6
  call void @llvm.lifetime.end.p0(i64 256, ptr %4) #6
  call void @llvm.lifetime.end.p0(i64 8, ptr %3) #6
  call void @llvm.lifetime.end.p0(i64 8, ptr %2) #6
  call void @llvm.lifetime.end.p0(i64 4, ptr %1) #6
  ret i32 %78
}