; Function Attrs: nounwind uwtable
define internal range(i32 0, 2) i32 @test_ec_public_key_infinity() #0 {
  %1 = alloca [256 x i8], align 16
  %2 = alloca [256 x i8], align 16
  %3 = alloca i64, align 8
  %4 = alloca i64, align 8
  %5 = alloca [1 x i8], align 1
  call void @llvm.lifetime.start.p0(i64 256, ptr nonnull %1) #5
  call void @llvm.lifetime.start.p0(i64 256, ptr nonnull %2) #5
  call void @llvm.lifetime.start.p0(i64 8, ptr nonnull %3) #5
  store i64 256, ptr %3, align 8, !tbaa !13
  call void @llvm.lifetime.start.p0(i64 8, ptr nonnull %4) #5
  store i64 256, ptr %4, align 8, !tbaa !13
  call void @llvm.lifetime.start.p0(i64 1, ptr nonnull %5) #5
  store i8 0, ptr %5, align 1
  %6 = load ptr, ptr @rctx, align 16, !tbaa !19
  %7 = call fastcc ptr @new_raw_private_key(ptr noundef nonnull @.str.6, ptr noundef nonnull @p256_ikmr_priv, i64 noundef 32, ptr noundef nonnull %5, i64 noundef 1)
  %8 = call i32 @test_ptr(ptr noundef nonnull @.str.3, i32 noundef 304, ptr noundef nonnull @.str.142, ptr noundef %7) #5
  %.not = icmp eq i32 %8, 0
  br i1 %.not, label %33, label %9

9:                                                ; preds = %0
  %10 = load ptr, ptr @libctx, align 8, !tbaa !15
  %11 = call ptr @EVP_PKEY_CTX_new_from_pkey(ptr noundef %10, ptr noundef %7, ptr noundef null) #5
  %12 = call i32 @test_ptr(ptr noundef nonnull @.str.3, i32 noundef 305, ptr noundef nonnull @.str.143, ptr noundef %11) #5
  %.not15 = icmp eq i32 %12, 0
  br i1 %.not15, label %33, label %13

13:                                               ; preds = %9
  %14 = call i32 @EVP_PKEY_encapsulate_init(ptr noundef %11, ptr noundef nonnull @opparam) #5
  %15 = call i32 @test_int_eq(ptr noundef nonnull @.str.3, i32 noundef 307, ptr noundef nonnull @.str.144, ptr noundef nonnull @.str.50, i32 noundef %14, i32 noundef 1) #5
  %.not16 = icmp eq i32 %15, 0
  br i1 %.not16, label %33, label %16

16:                                               ; preds = %13
  %17 = call i32 @EVP_PKEY_encapsulate(ptr noundef %11, ptr noundef nonnull %2, ptr noundef nonnull %4, ptr noundef nonnull %1, ptr noundef nonnull %3) #5
  %18 = call i32 @test_int_eq(ptr noundef nonnull @.str.3, i32 noundef 308, ptr noundef nonnull @.str.145, ptr noundef nonnull @.str.74, i32 noundef %17, i32 noundef 0) #5
  %.not17 = icmp eq i32 %18, 0
  br i1 %.not17, label %33, label %19

19:                                               ; preds = %16
  %20 = call i32 @EVP_PKEY_decapsulate_init(ptr noundef %11, ptr noundef nonnull @opparam) #5
  %21 = call i32 @test_int_eq(ptr noundef nonnull @.str.3, i32 noundef 310, ptr noundef nonnull @.str.146, ptr noundef nonnull @.str.50, i32 noundef %20, i32 noundef 1) #5
  %.not18 = icmp eq i32 %21, 0
  br i1 %.not18, label %33, label %22

22:                                               ; preds = %19
  %23 = call i32 @EVP_PKEY_decapsulate(ptr noundef %11, ptr noundef nonnull %1, ptr noundef nonnull %3, ptr noundef nonnull @p256_expected_enc, i64 noundef 65) #5
  %24 = call i32 @test_int_eq(ptr noundef nonnull @.str.3, i32 noundef 313, ptr noundef nonnull @.str.147, ptr noundef nonnull @.str.74, i32 noundef %23, i32 noundef 0) #5
  %.not19 = icmp eq i32 %24, 0
  br i1 %.not19, label %33, label %25

25:                                               ; preds = %22
  %26 = call i32 @EVP_PKEY_auth_encapsulate_init(ptr noundef %6, ptr noundef %7, ptr noundef nonnull @opparam) #5
  %27 = call i32 @test_int_eq(ptr noundef nonnull @.str.3, i32 noundef 315, ptr noundef nonnull @.str.148, ptr noundef nonnull @.str.50, i32 noundef %26, i32 noundef 1) #5
  %.not20 = icmp eq i32 %27, 0
  br i1 %.not20, label %33, label %28

28:                                               ; preds = %25
  %29 = call i32 @EVP_PKEY_encapsulate(ptr noundef %6, ptr noundef nonnull %2, ptr noundef nonnull %4, ptr noundef nonnull %1, ptr noundef nonnull %3) #5
  %30 = call i32 @test_int_eq(ptr noundef nonnull @.str.3, i32 noundef 316, ptr noundef nonnull @.str.149, ptr noundef nonnull @.str.74, i32 noundef %29, i32 noundef 0) #5
  %31 = icmp ne i32 %30, 0
  %32 = zext i1 %31 to i32
  br label %33

33:                                               ; preds = %28, %25, %22, %19, %16, %13, %9, %0
  %.0 = phi ptr [ %11, %28 ], [ %11, %25 ], [ %11, %22 ], [ %11, %19 ], [ %11, %16 ], [ %11, %13 ], [ %11, %9 ], [ null, %0 ]
  %34 = phi i32 [ %32, %28 ], [ 0, %25 ], [ 0, %22 ], [ 0, %19 ], [ 0, %16 ], [ 0, %13 ], [ 0, %9 ], [ 0, %0 ]
  call void @EVP_PKEY_free(ptr noundef %7) #5
  call void @EVP_PKEY_CTX_free(ptr noundef %.0) #5
  call void @llvm.lifetime.end.p0(i64 1, ptr nonnull %5) #5
  call void @llvm.lifetime.end.p0(i64 8, ptr nonnull %4) #5
  call void @llvm.lifetime.end.p0(i64 8, ptr nonnull %3) #5
  call void @llvm.lifetime.end.p0(i64 256, ptr nonnull %2) #5
  call void @llvm.lifetime.end.p0(i64 256, ptr nonnull %1) #5
  ret i32 %34
}